target datalayout = "e-m:e-p270:32:32-p271:32:32-p272:64:64-i64:64-i128:128-f80:128-n8:16:32:64-S128"
target triple = "x86_64-pc-linux-gnu"

%struct.bignum_st = type { ptr, i32, i32, i32, i32 }

@.str = private unnamed_addr constant [31 x i8] c"../openssl/crypto/bn/bn_rand.c\00", align 1
@__func__.bnrand_range = private unnamed_addr constant [13 x i8] c"bnrand_range\00", align 1

; Function Attrs: nounwind uwtable
define internal i32 @bnrand_range(i32 noundef %0, ptr noundef %1, ptr noundef %2, i32 noundef %3, ptr noundef %4) #0 {
  %6 = alloca i32, align 4
  %7 = alloca i32, align 4
  %8 = alloca ptr, align 8
  %9 = alloca ptr, align 8
  %10 = alloca i32, align 4
  %11 = alloca ptr, align 8
  %12 = alloca i32, align 4
  %13 = alloca i32, align 4
  %14 = alloca i32, align 4
  store i32 %0, ptr %7, align 4, !tbaa !8
  store ptr %1, ptr %8, align 8, !tbaa !3
  store ptr %2, ptr %9, align 8, !tbaa !3
  store i32 %3, ptr %10, align 4, !tbaa !8
  store ptr %4, ptr %11, align 8, !tbaa !10
  call void @llvm.lifetime.start.p0(i64 4, ptr %12) #4
  call void @llvm.lifetime.start.p0(i64 4, ptr %13) #4
  store i32 100, ptr %13, align 4, !tbaa !8
  %15 = load ptr, ptr %8, align 8, !tbaa !3
  %16 = icmp eq ptr %15, null
  br i1 %16, label %17, label %18

17:                                               ; preds = %5
  call void @ERR_new()
  call void @ERR_set_debug(ptr noundef @.str, i32 noundef 138, ptr noundef @__func__.bnrand_range)
  call void (i32, i32, ptr, ...) @ERR_set_error(i32 noundef 3, i32 noundef 786690, ptr noundef null)
  store i32 0, ptr %6, align 4
  store i32 1, ptr %14, align 4
  br label %120

18:                                               ; preds = %5
  %19 = load ptr, ptr %9, align 8, !tbaa !3
  %20 = getelementptr inbounds nuw %struct.bignum_st, ptr %19, i32 0, i32 3
  %21 = load i32, ptr %20, align 8, !tbaa !19
  %22 = icmp ne i32 %21, 0
  br i1 %22, label %27, label %23

23:                                               ; preds = %18
  %24 = load ptr, ptr %9, align 8, !tbaa !3
  %25 = call i32 @BN_is_zero(ptr noundef %24)
  %26 = icmp ne i32 %25, 0
  br i1 %26, label %27, label %28

27:                                               ; preds = %23, %18
  call void @ERR_new()
  call void @ERR_set_debug(ptr noundef @.str, i32 noundef 143, ptr noundef @__func__.bnrand_range)
  call void (i32, i32, ptr, ...) @ERR_set_error(i32 noundef 3, i32 noundef 115, ptr noundef null)
  store i32 0, ptr %6, align 4
  store i32 1, ptr %14, align 4
  br label %120

28:                                               ; preds = %23
  %29 = load ptr, ptr %9, align 8, !tbaa !3
  %30 = call i32 @BN_num_bits(ptr noundef %29)
  store i32 %30, ptr %12, align 4, !tbaa !8
  %31 = load i32, ptr %12, align 4, !tbaa !8
  %32 = icmp eq i32 %31, 1
  br i1 %32, label %33, label %35

33:                                               ; preds = %28
  %34 = load ptr, ptr %8, align 8, !tbaa !3
  call void @BN_zero_ex(ptr noundef %34)
  br label %119

35:                                               ; preds = %28
  %36 = load ptr, ptr %9, align 8, !tbaa !3
  %37 = load i32, ptr %12, align 4, !tbaa !8
  %38 = sub nsw i32 %37, 2
  %39 = call i32 @BN_is_bit_set(ptr noundef %36, i32 noundef %38)
  %40 = icmp ne i32 %39, 0
  br i1 %40, label %96, label %41

41:                                               ; preds = %35
  %42 = load ptr, ptr %9, align 8, !tbaa !3
  %43 = load i32, ptr %12, align 4, !tbaa !8
  %44 = sub nsw i32 %43, 3
  %45 = call i32 @BN_is_bit_set(ptr noundef %42, i32 noundef %44)
  %46 = icmp ne i32 %45, 0
  br i1 %46, label %96, label %47

47:                                               ; preds = %41
  br label %48

48:                                               ; preds = %90, %47
  %49 = load i32, ptr %7, align 4, !tbaa !8
  %50 = load ptr, ptr %8, align 8, !tbaa !3
  %51 = load i32, ptr %12, align 4, !tbaa !8
  %52 = add nsw i32 %51, 1
  %53 = load i32, ptr %10, align 4, !tbaa !8
  %54 = load ptr, ptr %11, align 8, !tbaa !10
  %55 = call i32 @bnrand(i32 noundef %49, ptr noundef %50, i32 noundef %52, i32 noundef -1, i32 noundef 0, i32 noundef %53, ptr noundef %54)
  %56 = icmp ne i32 %55, 0
  br i1 %56, label %58, label %57

57:                                               ; preds = %48
  store i32 0, ptr %6, align 4
  store i32 1, ptr %14, align 4
  br label %120

58:                                               ; preds = %48
  %59 = load ptr, ptr %8, align 8, !tbaa !3
  %60 = load ptr, ptr %9, align 8, !tbaa !3
  %61 = call i32 @BN_cmp(ptr noundef %59, ptr noundef %60)
  %62 = icmp sge i32 %61, 0
  br i1 %62, label %63, label %84

63:                                               ; preds = %58
  %64 = load ptr, ptr %8, align 8, !tbaa !3
  %65 = load ptr, ptr %8, align 8, !tbaa !3
  %66 = load ptr, ptr %9, align 8, !tbaa !3
  %67 = call i32 @BN_sub(ptr noundef %64, ptr noundef %65, ptr noundef %66)
  %68 = icmp ne i32 %67, 0
  br i1 %68, label %70, label %69

69:                                               ; preds = %63
  store i32 0, ptr %6, align 4
  store i32 1, ptr %14, align 4
  br label %120

70:                                               ; preds = %63
  %71 = load ptr, ptr %8, align 8, !tbaa !3
  %72 = load ptr, ptr %9, align 8, !tbaa !3
  %73 = call i32 @BN_cmp(ptr noundef %71, ptr noundef %72)
  %74 = icmp sge i32 %73, 0
  br i1 %74, label %75, label %83

75:                                               ; preds = %70
  %76 = load ptr, ptr %8, align 8, !tbaa !3
  %77 = load ptr, ptr %8, align 8, !tbaa !3
  %78 = load ptr, ptr %9, align 8, !tbaa !3
  %79 = call i32 @BN_sub(ptr noundef %76, ptr noundef %77, ptr noundef %78)
  %80 = icmp ne i32 %79, 0
  br i1 %80, label %82, label %81

81:                                               ; preds = %75
  store i32 0, ptr %6, align 4
  store i32 1, ptr %14, align 4
  br label %120

82:                                               ; preds = %75
  br label %83

83:                                               ; preds = %82, %70
  br label %84

84:                                               ; preds = %83, %58
  %85 = load i32, ptr %13, align 4, !tbaa !8
  %86 = add nsw i32 %85, -1
  store i32 %86, ptr %13, align 4, !tbaa !8
  %87 = icmp ne i32 %86, 0
  br i1 %87, label %89, label %88

88:                                               ; preds = %84
  call void @ERR_new()
  call void @ERR_set_debug(ptr noundef @.str, i32 noundef 178, ptr noundef @__func__.bnrand_range)
  call void (i32, i32, ptr, ...) @ERR_set_error(i32 noundef 3, i32 noundef 113, ptr noundef null)
  store i32 0, ptr %6, align 4
  store i32 1, ptr %14, align 4
  br label %120

89:                                               ; preds = %84
  br label %90

90:                                               ; preds = %89
  %91 = load ptr, ptr %8, align 8, !tbaa !3
  %92 = load ptr, ptr %9, align 8, !tbaa !3
  %93 = call i32 @BN_cmp(ptr noundef %91, ptr noundef %92)
  %94 = icmp sge i32 %93, 0
  br i1 %94, label %48, label %95, !llvm.loop !22

95:                                               ; preds = %90
  br label %118

96:                                               ; preds = %41, %35
  br label %97

97:                                               ; preds = %112, %96
  %98 = load i32, ptr %7, align 4, !tbaa !8
  %99 = load ptr, ptr %8, align 8, !tbaa !3
  %100 = load i32, ptr %12, align 4, !tbaa !8
  %101 = load i32, ptr %10, align 4, !tbaa !8
  %102 = load ptr, ptr %11, align 8, !tbaa !10
  %103 = call i32 @bnrand(i32 noundef %98, ptr noundef %99, i32 noundef %100, i32 noundef -1, i32 noundef 0, i32 noundef %101, ptr noundef %102)
  %104 = icmp ne i32 %103, 0
  br i1 %104, label %106, label %105

105:                                              ; preds = %97
  store i32 0, ptr %6, align 4
  store i32 1, ptr %14, align 4
  br label %120

106:                                              ; preds = %97
  %107 = load i32, ptr %13, align 4, !tbaa !8
  %108 = add nsw i32 %107, -1
  store i32 %108, ptr %13, align 4, !tbaa !8
  %109 = icmp ne i32 %108, 0
  br i1 %109, label %111, label %110

110:                                              ; preds = %106
  call void @ERR_new()
  call void @ERR_set_debug(ptr noundef @.str, i32 noundef 192, ptr noundef @__func__.bnrand_range)
  call void (i32, i32, ptr, ...) @ERR_set_error(i32 noundef 3, i32 noundef 113, ptr noundef null)
  store i32 0, ptr %6, align 4
  store i32 1, ptr %14, align 4
  br label %120

111:                                              ; preds = %106
  br label %112

112:                                              ; preds = %111
  %113 = load ptr, ptr %8, align 8, !tbaa !3
  %114 = load ptr, ptr %9, align 8, !tbaa !3
  %115 = call i32 @BN_cmp(ptr noundef %113, ptr noundef %114)
  %116 = icmp sge i32 %115, 0
  br i1 %116, label %97, label %117, !llvm.loop !23

117:                                              ; preds = %112
  br label %118

118:                                              ; preds = %117, %95
  br label %119

119:                                              ; preds = %118, %33
  store i32 1, ptr %6, align 4
  store i32 1, ptr %14, align 4
  br label %120

120:                                              ; preds = %119, %110, %105, %88, %81, %69, %57, %27, %17
  call void @llvm.lifetime.end.p0(i64 4, ptr %13) #4
  call void @llvm.lifetime.end.p0(i64 4, ptr %12) #4
  %121 = load i32, ptr %6, align 4
  ret i32 %121
}