; Function Attrs: nounwind uwtable
define internal fastcc range(i32 0, 2) i32 @bnrand_range(i32 noundef range(i32 0, 3) %0, ptr noundef %1, ptr noundef %2, i32 noundef %3, ptr noundef %4) unnamed_addr #0 {
  %6 = icmp eq ptr %1, null
  br i1 %6, label %7, label %8

7:                                                ; preds = %5
  tail call void @ERR_new() #5
  tail call void @ERR_set_debug(ptr noundef nonnull @.str, i32 noundef 138, ptr noundef nonnull @__func__.bnrand_range) #5
  tail call void (i32, i32, ptr, ...) @ERR_set_error(i32 noundef 3, i32 noundef 786690, ptr noundef null) #5
  br label %.loopexit

8:                                                ; preds = %5
  %9 = getelementptr inbounds nuw i8, ptr %2, i64 16
  %10 = load i32, ptr %9, align 8, !tbaa !8
  %.not = icmp eq i32 %10, 0
  br i1 %.not, label %11, label %13

11:                                               ; preds = %8
  %12 = tail call i32 @BN_is_zero(ptr noundef nonnull %2) #5
  %.not41 = icmp eq i32 %12, 0
  br i1 %.not41, label %14, label %13

13:                                               ; preds = %11, %8
  tail call void @ERR_new() #5
  tail call void @ERR_set_debug(ptr noundef nonnull @.str, i32 noundef 143, ptr noundef nonnull @__func__.bnrand_range) #5
  tail call void (i32, i32, ptr, ...) @ERR_set_error(i32 noundef 3, i32 noundef 115, ptr noundef null) #5
  br label %.loopexit

14:                                               ; preds = %11
  %15 = tail call i32 @BN_num_bits(ptr noundef nonnull %2) #5
  %16 = icmp eq i32 %15, 1
  br i1 %16, label %17, label %18

17:                                               ; preds = %14
  tail call void @BN_zero_ex(ptr noundef nonnull %1) #5
  br label %.loopexit

18:                                               ; preds = %14
  %19 = add nsw i32 %15, -2
  %20 = tail call i32 @BN_is_bit_set(ptr noundef nonnull %2, i32 noundef %19) #5
  %.not42 = icmp eq i32 %20, 0
  br i1 %.not42, label %21, label %.preheader58

.preheader58:                                     ; preds = %21, %18
  br label %43

21:                                               ; preds = %18
  %22 = add nsw i32 %15, -3
  %23 = tail call i32 @BN_is_bit_set(ptr noundef nonnull %2, i32 noundef %22) #5
  %.not43 = icmp eq i32 %23, 0
  br i1 %.not43, label %.preheader, label %.preheader58

.preheader:                                       ; preds = %21
  %24 = add nsw i32 %15, 1
  br label %25

25:                                               ; preds = %.preheader, %40
  %.0 = phi i32 [ %38, %40 ], [ 100, %.preheader ]
  %26 = tail call fastcc i32 @bnrand(i32 noundef %0, ptr noundef nonnull %1, i32 noundef %24, i32 noundef -1, i32 noundef 0, i32 noundef %3, ptr noundef %4)
  %.not44 = icmp eq i32 %26, 0
  br i1 %.not44, label %.loopexit, label %27

27:                                               ; preds = %25
  %28 = tail call i32 @BN_cmp(ptr noundef nonnull %1, ptr noundef nonnull %2) #5
  %29 = icmp sgt i32 %28, -1
  br i1 %29, label %30, label %37

30:                                               ; preds = %27
  %31 = tail call i32 @BN_sub(ptr noundef nonnull %1, ptr noundef nonnull %1, ptr noundef nonnull %2) #5
  %.not45 = icmp eq i32 %31, 0
  br i1 %.not45, label %.loopexit, label %32

32:                                               ; preds = %30
  %33 = tail call i32 @BN_cmp(ptr noundef nonnull %1, ptr noundef nonnull %2) #5
  %34 = icmp sgt i32 %33, -1
  br i1 %34, label %35, label %37

35:                                               ; preds = %32
  %36 = tail call i32 @BN_sub(ptr noundef nonnull %1, ptr noundef nonnull %1, ptr noundef nonnull %2) #5
  %.not46 = icmp eq i32 %36, 0
  br i1 %.not46, label %.loopexit, label %37

37:                                               ; preds = %32, %35, %27
  %38 = add nsw i32 %.0, -1
  %.not47 = icmp eq i32 %38, 0
  br i1 %.not47, label %39, label %40

39:                                               ; preds = %37
  tail call void @ERR_new() #5
  tail call void @ERR_set_debug(ptr noundef nonnull @.str, i32 noundef 178, ptr noundef nonnull @__func__.bnrand_range) #5
  tail call void (i32, i32, ptr, ...) @ERR_set_error(i32 noundef 3, i32 noundef 113, ptr noundef null) #5
  br label %.loopexit

40:                                               ; preds = %37
  %41 = tail call i32 @BN_cmp(ptr noundef nonnull %1, ptr noundef nonnull %2) #5
  %42 = icmp sgt i32 %41, -1
  br i1 %42, label %25, label %.loopexit, !llvm.loop !13

43:                                               ; preds = %.preheader58, %48
  %.1 = phi i32 [ %46, %48 ], [ 100, %.preheader58 ]
  %44 = tail call fastcc i32 @bnrand(i32 noundef %0, ptr noundef nonnull %1, i32 noundef %15, i32 noundef -1, i32 noundef 0, i32 noundef %3, ptr noundef %4)
  %.not48 = icmp eq i32 %44, 0
  br i1 %.not48, label %.loopexit, label %45

45:                                               ; preds = %43
  %46 = add nsw i32 %.1, -1
  %.not49 = icmp eq i32 %46, 0
  br i1 %.not49, label %47, label %48

47:                                               ; preds = %45
  tail call void @ERR_new() #5
  tail call void @ERR_set_debug(ptr noundef nonnull @.str, i32 noundef 192, ptr noundef nonnull @__func__.bnrand_range) #5
  tail call void (i32, i32, ptr, ...) @ERR_set_error(i32 noundef 3, i32 noundef 113, ptr noundef null) #5
  br label %.loopexit

48:                                               ; preds = %45
  %49 = tail call i32 @BN_cmp(ptr noundef nonnull %1, ptr noundef nonnull %2) #5
  %50 = icmp sgt i32 %49, -1
  br i1 %50, label %43, label %.loopexit, !llvm.loop !14

.loopexit:                                        ; preds = %48, %43, %40, %35, %30, %25, %17, %47, %39, %13, %7
  %.036 = phi i32 [ 0, %7 ], [ 0, %13 ], [ 0, %47 ], [ 0, %39 ], [ 1, %17 ], [ 1, %40 ], [ 0, %35 ], [ 0, %30 ], [ 0, %25 ], [ 1, %48 ], [ 0, %43 ]
  ret i32 %.036
}